; Function Attrs: nounwind uwtable
define ptr @l___private_Lean_Meta_Tactic_Grind_EMatch_0__Lean_Meta_Grind_EMatch_addNewInstance___lambda__1___boxed(ptr noundef %0, ptr noundef %1, ptr noundef %2, ptr noundef %3, ptr noundef %4, ptr noundef %5, ptr noundef %6, ptr noundef %7, ptr noundef %8, ptr noundef %9, ptr noundef %10, ptr noundef %11, ptr noundef %12, ptr noundef %13, ptr noundef %14, ptr noundef %15) local_unnamed_addr #0 {
  %17 = ptrtoint ptr %0 to i64
  %18 = and i64 %17, 1
  %.not.i46 = icmp eq i64 %18, 0
  br i1 %.not.i46, label %.critedge.i.i, label %19, !prof !17

19:                                               ; preds = %16
  %20 = lshr i64 %17, 1
  %21 = add nuw i64 %20, 1
  %22 = icmp sgt i64 %21, -1
  br i1 %22, label %23, label %27, !prof !11

23:                                               ; preds = %19
  %24 = shl nuw i64 %21, 1
  %25 = or disjoint i64 %24, 1
  %26 = inttoptr i64 %25 to ptr
  br label %l___private_Lean_Meta_Tactic_Grind_EMatch_0__Lean_Meta_Grind_EMatch_addNewInstance___lambda__1.exit

27:                                               ; preds = %19
  %28 = tail call ptr @lean_big_usize_to_nat(i64 noundef range(i64 0, -1) %21) #5
  br label %l___private_Lean_Meta_Tactic_Grind_EMatch_0__Lean_Meta_Grind_EMatch_addNewInstance___lambda__1.exit

.critedge.i.i:                                    ; preds = %16
  %29 = tail call ptr @lean_nat_big_add(ptr noundef %0, ptr noundef nonnull inttoptr (i64 3 to ptr)) #5
  br label %l___private_Lean_Meta_Tactic_Grind_EMatch_0__Lean_Meta_Grind_EMatch_addNewInstance___lambda__1.exit

l___private_Lean_Meta_Tactic_Grind_EMatch_0__Lean_Meta_Grind_EMatch_addNewInstance___lambda__1.exit: ; preds = %23, %27, %.critedge.i.i
  %.0.i.i = phi ptr [ %29, %.critedge.i.i ], [ %26, %23 ], [ %28, %27 ]
  %30 = tail call ptr @l_Lean_Meta_Grind_addTheoremInstance(ptr noundef %1, ptr noundef %2, ptr noundef %3, ptr noundef %.0.i.i, ptr noundef %7, ptr noundef %8, ptr noundef %9, ptr noundef %10, ptr noundef %11, ptr noundef %12, ptr noundef %13, ptr noundef %14, ptr noundef %15) #5
  %31 = ptrtoint ptr %10 to i64
  %32 = and i64 %31, 1
  %.not = icmp eq i64 %32, 0
  br i1 %.not, label %33, label %lean_dec.exit31

33:                                               ; preds = %l___private_Lean_Meta_Tactic_Grind_EMatch_0__Lean_Meta_Grind_EMatch_addNewInstance___lambda__1.exit
  %34 = load i32, ptr %10, align 4, !tbaa !8
  %35 = icmp sgt i32 %34, 1
  br i1 %35, label %36, label %38, !prof !11

36:                                               ; preds = %33
  %37 = add nsw i32 %34, -1
  store i32 %37, ptr %10, align 4, !tbaa !8
  br label %lean_dec.exit31

38:                                               ; preds = %33
  %.not.i = icmp eq i32 %34, 0
  br i1 %.not.i, label %lean_dec.exit31, label %39

39:                                               ; preds = %38
  tail call void @lean_dec_ref_cold(ptr noundef nonnull %10) #5
  br label %lean_dec.exit31

lean_dec.exit31:                                  ; preds = %39, %38, %36, %l___private_Lean_Meta_Tactic_Grind_EMatch_0__Lean_Meta_Grind_EMatch_addNewInstance___lambda__1.exit
  %40 = ptrtoint ptr %9 to i64
  %41 = and i64 %40, 1
  %.not47 = icmp eq i64 %41, 0
  br i1 %.not47, label %42, label %lean_dec.exit30

42:                                               ; preds = %lean_dec.exit31
  %43 = load i32, ptr %9, align 4, !tbaa !8
  %44 = icmp sgt i32 %43, 1
  br i1 %44, label %45, label %47, !prof !11

45:                                               ; preds = %42
  %46 = add nsw i32 %43, -1
  store i32 %46, ptr %9, align 4, !tbaa !8
  br label %lean_dec.exit30

47:                                               ; preds = %42
  %.not.i32 = icmp eq i32 %43, 0
  br i1 %.not.i32, label %lean_dec.exit30, label %48

48:                                               ; preds = %47
  tail call void @lean_dec_ref_cold(ptr noundef nonnull %9) #5
  br label %lean_dec.exit30

lean_dec.exit30:                                  ; preds = %48, %47, %45, %lean_dec.exit31
  %49 = ptrtoint ptr %8 to i64
  %50 = and i64 %49, 1
  %.not48 = icmp eq i64 %50, 0
  br i1 %.not48, label %51, label %lean_dec.exit29

51:                                               ; preds = %lean_dec.exit30
  %52 = load i32, ptr %8, align 4, !tbaa !8
  %53 = icmp sgt i32 %52, 1
  br i1 %53, label %54, label %56, !prof !11

54:                                               ; preds = %51
  %55 = add nsw i32 %52, -1
  store i32 %55, ptr %8, align 4, !tbaa !8
  br label %lean_dec.exit29

56:                                               ; preds = %51
  %.not.i34 = icmp eq i32 %52, 0
  br i1 %.not.i34, label %lean_dec.exit29, label %57

57:                                               ; preds = %56
  tail call void @lean_dec_ref_cold(ptr noundef nonnull %8) #5
  br label %lean_dec.exit29

lean_dec.exit29:                                  ; preds = %57, %56, %54, %lean_dec.exit30
  %58 = ptrtoint ptr %7 to i64
  %59 = and i64 %58, 1
  %.not49 = icmp eq i64 %59, 0
  br i1 %.not49, label %60, label %lean_dec.exit28

60:                                               ; preds = %lean_dec.exit29
  %61 = load i32, ptr %7, align 4, !tbaa !8
  %62 = icmp sgt i32 %61, 1
  br i1 %62, label %63, label %65, !prof !11

63:                                               ; preds = %60
  %64 = add nsw i32 %61, -1
  store i32 %64, ptr %7, align 4, !tbaa !8
  br label %lean_dec.exit28

65:                                               ; preds = %60
  %.not.i36 = icmp eq i32 %61, 0
  br i1 %.not.i36, label %lean_dec.exit28, label %66

66:                                               ; preds = %65
  tail call void @lean_dec_ref_cold(ptr noundef nonnull %7) #5
  br label %lean_dec.exit28

lean_dec.exit28:                                  ; preds = %66, %65, %63, %lean_dec.exit29
  %67 = ptrtoint ptr %6 to i64
  %68 = and i64 %67, 1
  %.not50 = icmp eq i64 %68, 0
  br i1 %.not50, label %69, label %lean_dec.exit27

69:                                               ; preds = %lean_dec.exit28
  %70 = load i32, ptr %6, align 4, !tbaa !8
  %71 = icmp sgt i32 %70, 1
  br i1 %71, label %72, label %74, !prof !11

72:                                               ; preds = %69
  %73 = add nsw i32 %70, -1
  store i32 %73, ptr %6, align 4, !tbaa !8
  br label %lean_dec.exit27

74:                                               ; preds = %69
  %.not.i38 = icmp eq i32 %70, 0
  br i1 %.not.i38, label %lean_dec.exit27, label %75

75:                                               ; preds = %74
  tail call void @lean_dec_ref_cold(ptr noundef nonnull %6) #5
  br label %lean_dec.exit27

lean_dec.exit27:                                  ; preds = %75, %74, %72, %lean_dec.exit28
  %76 = ptrtoint ptr %5 to i64
  %77 = and i64 %76, 1
  %.not51 = icmp eq i64 %77, 0
  br i1 %.not51, label %78, label %lean_dec.exit26

78:                                               ; preds = %lean_dec.exit27
  %79 = load i32, ptr %5, align 4, !tbaa !8
  %80 = icmp sgt i32 %79, 1
  br i1 %80, label %81, label %83, !prof !11

81:                                               ; preds = %78
  %82 = add nsw i32 %79, -1
  store i32 %82, ptr %5, align 4, !tbaa !8
  br label %lean_dec.exit26

83:                                               ; preds = %78
  %.not.i40 = icmp eq i32 %79, 0
  br i1 %.not.i40, label %lean_dec.exit26, label %84

84:                                               ; preds = %83
  tail call void @lean_dec_ref_cold(ptr noundef nonnull %5) #5
  br label %lean_dec.exit26

lean_dec.exit26:                                  ; preds = %84, %83, %81, %lean_dec.exit27
  %85 = ptrtoint ptr %4 to i64
  %86 = and i64 %85, 1
  %.not52 = icmp eq i64 %86, 0
  br i1 %.not52, label %87, label %lean_dec.exit25

87:                                               ; preds = %lean_dec.exit26
  %88 = load i32, ptr %4, align 4, !tbaa !8
  %89 = icmp sgt i32 %88, 1
  br i1 %89, label %90, label %92, !prof !11

90:                                               ; preds = %87
  %91 = add nsw i32 %88, -1
  store i32 %91, ptr %4, align 4, !tbaa !8
  br label %lean_dec.exit25

92:                                               ; preds = %87
  %.not.i42 = icmp eq i32 %88, 0
  br i1 %.not.i42, label %lean_dec.exit25, label %93

93:                                               ; preds = %92
  tail call void @lean_dec_ref_cold(ptr noundef nonnull %4) #5
  br label %lean_dec.exit25

lean_dec.exit25:                                  ; preds = %93, %92, %90, %lean_dec.exit26
  br i1 %.not.i46, label %94, label %lean_dec.exit

94:                                               ; preds = %lean_dec.exit25
  %95 = load i32, ptr %0, align 4, !tbaa !8
  %96 = icmp sgt i32 %95, 1
  br i1 %96, label %97, label %99, !prof !11

97:                                               ; preds = %94
  %98 = add nsw i32 %95, -1
  store i32 %98, ptr %0, align 4, !tbaa !8
  br label %lean_dec.exit

99:                                               ; preds = %94
  %.not.i44 = icmp eq i32 %95, 0
  br i1 %.not.i44, label %lean_dec.exit, label %100

100:                                              ; preds = %99
  tail call void @lean_dec_ref_cold(ptr noundef nonnull %0) #5
  br label %lean_dec.exit

lean_dec.exit:                                    ; preds = %100, %99, %97, %lean_dec.exit25
  ret ptr %30
}